(dp1
S'output'
p2
S"<type 'exceptions.NameError'> global name 'lxml' is not defined"
p3
sS'layer'
p4
S'/home/shubham/manual_install/web2py/applications/code_ai/controllers/default.py'
p5
sS'code'
p6
S'# -*- coding: utf-8 -*-\n# this file is released under public domain and you can use without limitations\n\n#########################################################################\n## This is a sample controller\n## - index is the default action of any application\n## - user is required for authentication and authorization\n## - download is for downloading files uploaded in the db (does streaming)\n#########################################################################\n\ndef code():\n    prob_code=request.vars[\'prob_code\']\n    from bs4 import BeautifulSoup as bs\n    import urllib\n    r = urllib.urlopen(\'http://spoj.com/problems/\'+prob_code).read()\n    soup=bs(r,lxml)\n    problem_body=soup.find(id="problem-body").html\n    return dict(problem_body=problem_body,prob_code=prob_code)\n\ndef index():\n    """\n    example action using the internationalization operator T and flash\n    rendered by views/default/index.html or views/generic.html\n\n    if you need a simple wiki simply replace the two lines below with:\n    return auth.wiki()\n    """\n    response.flash = T("Hello World Shubham")\n    return dict(message=T(\'Welcome to web2py!\'))\n\n\ndef user():\n    """\n    exposes:\n    http://..../[app]/default/user/login\n    http://..../[app]/default/user/logout\n    http://..../[app]/default/user/register\n    http://..../[app]/default/user/profile\n    http://..../[app]/default/user/retrieve_password\n    http://..../[app]/default/user/change_password\n    http://..../[app]/default/user/bulk_register\n    use @auth.requires_login()\n        @auth.requires_membership(\'group name\')\n        @auth.requires_permission(\'read\',\'table name\',record_id)\n    to decorate functions that need access control\n    also notice there is http://..../[app]/appadmin/manage/auth to allow administrator to manage users\n    """\n    return dict(form=auth())\n\n\n@cache.action()\ndef download():\n    """\n    allows downloading of uploaded files\n    http://..../[app]/default/download/[filename]\n    """\n    return response.download(request, db)\n\n\ndef call():\n    """\n    exposes services. for example:\n    http://..../[app]/default/call/jsonrpc\n    decorate with @services.jsonrpc the functions to expose\n    supports xml, json, xmlrpc, jsonrpc, amfrpc, rss, csv\n    """\n    return service()\n\n\n\nresponse._vars=response._caller(code)\n'
p7
sS'snapshot'
p8
(dp9
sS'traceback'
p10
S'Traceback (most recent call last):\n  File "/home/shubham/manual_install/web2py/gluon/restricted.py", line 227, in restricted\n    exec ccode in environment\n  File "/home/shubham/manual_install/web2py/applications/code_ai/controllers/default.py", line 71, in <module>\n  File "/home/shubham/manual_install/web2py/gluon/globals.py", line 412, in <lambda>\n    self._caller = lambda f: f()\n  File "/home/shubham/manual_install/web2py/applications/code_ai/controllers/default.py", line 16, in code\n    soup=bs(r,lxml)\nNameError: global name \'lxml\' is not defined\n'
p11
s.